; Function Attrs: mustprogress uwtable
define hidden void @_ZN6recfun4utilC2ER11ast_manager(ptr nocapture noundef nonnull writeonly align 8 dereferenceable(24) %this, ptr noundef nonnull align 8 dereferenceable(976) %m) unnamed_addr #3 align 2 {
entry:
  %ref.tmp.i = alloca %class.symbol, align 8
  store ptr %m, ptr %this, align 8
  %m_fid = getelementptr inbounds i8, ptr %this, i64 8
  call void @llvm.lifetime.start.p0(i64 8, ptr nonnull %ref.tmp.i)
  call void @_ZN6symbolC1EPKc(ptr noundef nonnull align 8 dereferenceable(8) %ref.tmp.i, ptr noundef nonnull @.str.6)
  %m_family_manager.i.i = getelementptr inbounds i8, ptr %m, i64 560
  %call.i.i = call noundef i32 @_ZNK14family_manager13get_family_idERK6symbol(ptr noundef nonnull align 8 dereferenceable(56) %m_family_manager.i.i, ptr noundef nonnull align 8 dereferenceable(8) %ref.tmp.i)
  call void @llvm.lifetime.end.p0(i64 8, ptr nonnull %ref.tmp.i)
  store i32 %call.i.i, ptr %m_fid, align 8
  %call3 = call noundef ptr @_ZNK11ast_manager10get_pluginEi(ptr noundef nonnull align 8 dereferenceable(976) %m, i32 noundef %call.i.i)
  %0 = icmp eq ptr %call3, null
  br i1 %0, label %dynamic_cast.end, label %dynamic_cast.notnull

dynamic_cast.notnull:                             ; preds = %entry
  %1 = call ptr @__dynamic_cast(ptr nonnull %call3, ptr nonnull @_ZTI11decl_plugin, ptr nonnull @_ZTIN6recfun4decl6pluginE, i64 0) #21
  br label %dynamic_cast.end

dynamic_cast.end:                                 ; preds = %entry, %dynamic_cast.notnull
  %2 = phi ptr [ %1, %dynamic_cast.notnull ], [ null, %entry ]
  %m_plugin = getelementptr inbounds i8, ptr %this, i64 16
  store ptr %2, ptr %m_plugin, align 8
  ret void
}